; Function Attrs: nounwind uwtable
define nonnull ptr @l_Std_Time_ZonedDateTime_ofPlainDate___lambda__1___boxed(ptr noundef %0, ptr noundef %1) #0 {
  %3 = getelementptr inbounds nuw i8, ptr %1, i64 8
  %4 = load ptr, ptr %3, align 8, !tbaa !4
  %5 = ptrtoint ptr %0 to i64
  %6 = and i64 %5, 1
  %.not.i.i.i = icmp eq i64 %6, 0
  br i1 %.not.i.i.i, label %.critedge.i.i.i, label %7, !prof !12

7:                                                ; preds = %2
  %8 = ptrtoint ptr %4 to i64
  %9 = and i64 %8, 1
  %.not7.i.i.i = icmp eq i64 %9, 0
  br i1 %.not7.i.i.i, label %.critedge.i.i.i, label %10, !prof !12

10:                                               ; preds = %7
  %11 = lshr i64 %5, 1
  %12 = trunc i64 %11 to i32
  %13 = lshr i64 %8, 1
  %14 = trunc i64 %13 to i32
  %15 = icmp sle i32 %12, %14
  br label %l_Std_Time_ZonedDateTime_ofPlainDate___lambda__1.exit

.critedge.i.i.i:                                  ; preds = %7, %2
  %16 = tail call zeroext i1 @lean_int_big_le(ptr noundef %0, ptr noundef %4) #3
  br label %l_Std_Time_ZonedDateTime_ofPlainDate___lambda__1.exit

l_Std_Time_ZonedDateTime_ofPlainDate___lambda__1.exit: ; preds = %10, %.critedge.i.i.i
  %.0.i.i.i = phi i1 [ %15, %10 ], [ %16, %.critedge.i.i.i ]
  %17 = ptrtoint ptr %1 to i64
  %18 = and i64 %17, 1
  %.not = icmp eq i64 %18, 0
  br i1 %.not, label %19, label %lean_dec.exit5

19:                                               ; preds = %l_Std_Time_ZonedDateTime_ofPlainDate___lambda__1.exit
  %20 = load i32, ptr %1, align 4, !tbaa !8
  %21 = icmp sgt i32 %20, 1
  br i1 %21, label %22, label %24, !prof !11

22:                                               ; preds = %19
  %23 = add nsw i32 %20, -1
  store i32 %23, ptr %1, align 4, !tbaa !8
  br label %lean_dec.exit5

24:                                               ; preds = %19
  %.not.i = icmp eq i32 %20, 0
  br i1 %.not.i, label %lean_dec.exit5, label %25

25:                                               ; preds = %24
  tail call void @lean_dec_ref_cold(ptr noundef nonnull %1) #3
  br label %lean_dec.exit5

lean_dec.exit5:                                   ; preds = %25, %24, %22, %l_Std_Time_ZonedDateTime_ofPlainDate___lambda__1.exit
  br i1 %.not.i.i.i, label %26, label %lean_dec.exit

26:                                               ; preds = %lean_dec.exit5
  %27 = load i32, ptr %0, align 4, !tbaa !8
  %28 = icmp sgt i32 %27, 1
  br i1 %28, label %29, label %31, !prof !11

29:                                               ; preds = %26
  %30 = add nsw i32 %27, -1
  store i32 %30, ptr %0, align 4, !tbaa !8
  br label %lean_dec.exit

31:                                               ; preds = %26
  %.not.i6 = icmp eq i32 %27, 0
  br i1 %.not.i6, label %lean_dec.exit, label %32

32:                                               ; preds = %31
  tail call void @lean_dec_ref_cold(ptr noundef nonnull %0) #3
  br label %lean_dec.exit

lean_dec.exit:                                    ; preds = %32, %31, %29, %lean_dec.exit5
  %33 = select i1 %.0.i.i.i, ptr inttoptr (i64 3 to ptr), ptr inttoptr (i64 1 to ptr)
  ret ptr %33
}